target datalayout = "e-m:e-p270:32:32-p271:32:32-p272:64:64-i64:64-i128:128-f80:128-n8:16:32:64-S128"
target triple = "x86_64-pc-linux-gnu"

%struct.pmix_list_t = type { %struct.pmix_object_t, %struct.pmix_list_item_t, i64 }
%struct.pmix_object_t = type { %union.pthread_mutex_t, ptr, i32, %struct.pmix_tma }
%union.pthread_mutex_t = type { %struct.__pthread_mutex_s }
%struct.__pthread_mutex_s = type { i32, i32, i32, i32, i32, i16, i16, %struct.__pthread_internal_list }
%struct.__pthread_internal_list = type { ptr, ptr }
%struct.pmix_tma = type { ptr, ptr, ptr, ptr, ptr, ptr, ptr, ptr }
%struct.pmix_list_item_t = type { %struct.pmix_object_t, ptr, ptr, i32 }
%struct.timeval = type { i64, i64 }
%struct.prte_process_info_t = type { %struct.pmix_proc, %struct.pmix_proc, ptr, %struct.pmix_proc, i32, i32, i32, ptr, ptr, i32, i8, ptr, i16, ptr, ptr, i8, ptr, i8 }
%struct.pmix_proc = type { [256 x i8], i32 }
%struct.event = type { %struct.event_callback, %union.anon.0, i32, ptr, %union.anon.2, i16, i16, %struct.timeval }
%struct.event_callback = type { %struct.anon, i16, i8, i8, %union.anon, ptr }
%struct.anon = type { ptr, ptr }
%union.anon = type { ptr }
%union.anon.0 = type { %struct.anon.1 }
%struct.anon.1 = type { ptr, ptr }
%union.anon.2 = type { %struct.anon.3 }
%struct.anon.3 = type { %struct.anon.4, %struct.timeval }
%struct.anon.4 = type { ptr, ptr }
%struct.prte_oob_tcp_peer_t = type { %struct.pmix_list_item_t, %struct.pmix_proc, ptr, i32, %struct.pmix_list_t, ptr, i32, i32, %struct.event, i8, %struct.event, i8, %struct.event, i8, %struct.pmix_list_t, ptr, ptr }
%struct.sockaddr_storage = type { i16, [118 x i8], i64 }
%union.__SOCKADDR_ARG = type { ptr }

@prte_process_info = external global %struct.prte_process_info_t, align 8
@.str.41 = private unnamed_addr constant [43 x i8] c"tcp_peer_dump: getsockname error: %s (%d)\0A\00", align 1
@.str.42 = private unnamed_addr constant [3 x i8] c"%s\00", align 1
@.str.43 = private unnamed_addr constant [8 x i8] c"unknown\00", align 1
@.str.44 = private unnamed_addr constant [43 x i8] c"tcp_peer_dump: getpeername error: %s (%d)\0A\00", align 1
@.str.45 = private unnamed_addr constant [47 x i8] c"tcp_peer_dump: fcntl(F_GETFL) failed: %s (%d)\0A\00", align 1
@.str.46 = private unnamed_addr constant [42 x i8] c"tcp_peer_dump: SO_SNDBUF option: %s (%d)\0A\00", align 1
@.str.47 = private unnamed_addr constant [42 x i8] c"tcp_peer_dump: SO_RCVBUF option: %s (%d)\0A\00", align 1
@.str.48 = private unnamed_addr constant [44 x i8] c"tcp_peer_dump: TCP_NODELAY option: %s (%d)\0A\00", align 1
@.str.49 = private unnamed_addr constant [61 x i8] c"%s-%s %s: %s - %s nodelay %d sndbuf %d rcvbuf %d flags %08x\0A\00", align 1

; Function Attrs: nounwind uwtable
define void @prte_oob_tcp_peer_dump(ptr noundef %0, ptr noundef %1) #0 {
  %3 = alloca ptr, align 8
  %4 = alloca ptr, align 8
  %5 = alloca [64 x i8], align 16
  %6 = alloca [64 x i8], align 16
  %7 = alloca [255 x i8], align 16
  %8 = alloca i32, align 4
  %9 = alloca i32, align 4
  %10 = alloca i32, align 4
  %11 = alloca i32, align 4
  %12 = alloca %struct.sockaddr_storage, align 8
  %13 = alloca i32, align 4
  %14 = alloca i32, align 4
  %15 = alloca %union.__SOCKADDR_ARG, align 8
  %16 = alloca %union.__SOCKADDR_ARG, align 8
  store ptr %0, ptr %3, align 8, !tbaa !9
  store ptr %1, ptr %4, align 8, !tbaa !99
  call void @llvm.lifetime.start.p0(i64 64, ptr %5) #12
  call void @llvm.lifetime.start.p0(i64 64, ptr %6) #12
  call void @llvm.lifetime.start.p0(i64 255, ptr %7) #12
  call void @llvm.lifetime.start.p0(i64 4, ptr %8) #12
  call void @llvm.lifetime.start.p0(i64 4, ptr %9) #12
  call void @llvm.lifetime.start.p0(i64 4, ptr %10) #12
  call void @llvm.lifetime.start.p0(i64 4, ptr %11) #12
  call void @llvm.lifetime.start.p0(i64 128, ptr %12) #12
  call void @llvm.lifetime.start.p0(i64 4, ptr %13) #12
  store i32 128, ptr %13, align 4, !tbaa !3
  call void @llvm.lifetime.start.p0(i64 4, ptr %14) #12
  %17 = load ptr, ptr %3, align 8, !tbaa !9
  %18 = getelementptr inbounds nuw %struct.prte_oob_tcp_peer_t, ptr %17, i32 0, i32 3
  %19 = load i32, ptr %18, align 8, !tbaa !68
  store ptr %12, ptr %15, align 8, !tbaa !87
  %20 = getelementptr inbounds nuw %union.__SOCKADDR_ARG, ptr %15, i32 0, i32 0
  %21 = load ptr, ptr %20, align 8
  %22 = call i32 @getsockname(i32 noundef %19, ptr %21, ptr noundef %13) #12
  %23 = icmp slt i32 %22, 0
  br i1 %23, label %24, label %32

24:                                               ; preds = %2
  %25 = call ptr @__errno_location() #13
  %26 = load i32, ptr %25, align 4, !tbaa !3
  %27 = call ptr @strerror(i32 noundef %26) #12
  %28 = call ptr @__errno_location() #13
  %29 = load i32, ptr %28, align 4, !tbaa !3
  call void (i32, ptr, ...) @pmix_output(i32 noundef 0, ptr noundef @.str.41, ptr noundef %27, i32 noundef %29)
  %30 = getelementptr inbounds [64 x i8], ptr %5, i64 0, i64 0
  %31 = call i32 (ptr, i64, ptr, ...) @snprintf(ptr noundef %30, i64 noundef 64, ptr noundef @.str.42, ptr noundef @.str.43) #12
  br label %36

32:                                               ; preds = %2
  %33 = getelementptr inbounds [64 x i8], ptr %5, i64 0, i64 0
  %34 = call ptr @pmix_net_get_hostname(ptr noundef %12)
  %35 = call i32 (ptr, i64, ptr, ...) @snprintf(ptr noundef %33, i64 noundef 64, ptr noundef @.str.42, ptr noundef %34) #12
  br label %36

36:                                               ; preds = %32, %24
  %37 = load ptr, ptr %3, align 8, !tbaa !9
  %38 = getelementptr inbounds nuw %struct.prte_oob_tcp_peer_t, ptr %37, i32 0, i32 3
  %39 = load i32, ptr %38, align 8, !tbaa !68
  store ptr %12, ptr %16, align 8, !tbaa !87
  %40 = getelementptr inbounds nuw %union.__SOCKADDR_ARG, ptr %16, i32 0, i32 0
  %41 = load ptr, ptr %40, align 8
  %42 = call i32 @getpeername(i32 noundef %39, ptr %41, ptr noundef %13) #12
  %43 = icmp slt i32 %42, 0
  br i1 %43, label %44, label %52

44:                                               ; preds = %36
  %45 = call ptr @__errno_location() #13
  %46 = load i32, ptr %45, align 4, !tbaa !3
  %47 = call ptr @strerror(i32 noundef %46) #12
  %48 = call ptr @__errno_location() #13
  %49 = load i32, ptr %48, align 4, !tbaa !3
  call void (i32, ptr, ...) @pmix_output(i32 noundef 0, ptr noundef @.str.44, ptr noundef %47, i32 noundef %49)
  %50 = getelementptr inbounds [64 x i8], ptr %6, i64 0, i64 0
  %51 = call i32 (ptr, i64, ptr, ...) @snprintf(ptr noundef %50, i64 noundef 64, ptr noundef @.str.42, ptr noundef @.str.43) #12
  br label %56

52:                                               ; preds = %36
  %53 = getelementptr inbounds [64 x i8], ptr %6, i64 0, i64 0
  %54 = call ptr @pmix_net_get_hostname(ptr noundef %12)
  %55 = call i32 (ptr, i64, ptr, ...) @snprintf(ptr noundef %53, i64 noundef 64, ptr noundef @.str.42, ptr noundef %54) #12
  br label %56

56:                                               ; preds = %52, %44
  %57 = load ptr, ptr %3, align 8, !tbaa !9
  %58 = getelementptr inbounds nuw %struct.prte_oob_tcp_peer_t, ptr %57, i32 0, i32 3
  %59 = load i32, ptr %58, align 8, !tbaa !68
  %60 = call i32 (i32, i32, ...) @fcntl(i32 noundef %59, i32 noundef 3, i32 noundef 0)
  store i32 %60, ptr %11, align 4, !tbaa !3
  %61 = icmp slt i32 %60, 0
  br i1 %61, label %62, label %68

62:                                               ; preds = %56
  %63 = call ptr @__errno_location() #13
  %64 = load i32, ptr %63, align 4, !tbaa !3
  %65 = call ptr @strerror(i32 noundef %64) #12
  %66 = call ptr @__errno_location() #13
  %67 = load i32, ptr %66, align 4, !tbaa !3
  call void (i32, ptr, ...) @pmix_output(i32 noundef 0, ptr noundef @.str.45, ptr noundef %65, i32 noundef %67)
  br label %68

68:                                               ; preds = %62, %56
  store i32 4, ptr %14, align 4, !tbaa !3
  %69 = load ptr, ptr %3, align 8, !tbaa !9
  %70 = getelementptr inbounds nuw %struct.prte_oob_tcp_peer_t, ptr %69, i32 0, i32 3
  %71 = load i32, ptr %70, align 8, !tbaa !68
  %72 = call i32 @getsockopt(i32 noundef %71, i32 noundef 1, i32 noundef 7, ptr noundef %8, ptr noundef %14) #12
  %73 = icmp slt i32 %72, 0
  br i1 %73, label %74, label %80

74:                                               ; preds = %68
  %75 = call ptr @__errno_location() #13
  %76 = load i32, ptr %75, align 4, !tbaa !3
  %77 = call ptr @strerror(i32 noundef %76) #12
  %78 = call ptr @__errno_location() #13
  %79 = load i32, ptr %78, align 4, !tbaa !3
  call void (i32, ptr, ...) @pmix_output(i32 noundef 0, ptr noundef @.str.46, ptr noundef %77, i32 noundef %79)
  br label %80

80:                                               ; preds = %74, %68
  store i32 4, ptr %14, align 4, !tbaa !3
  %81 = load ptr, ptr %3, align 8, !tbaa !9
  %82 = getelementptr inbounds nuw %struct.prte_oob_tcp_peer_t, ptr %81, i32 0, i32 3
  %83 = load i32, ptr %82, align 8, !tbaa !68
  %84 = call i32 @getsockopt(i32 noundef %83, i32 noundef 1, i32 noundef 8, ptr noundef %9, ptr noundef %14) #12
  %85 = icmp slt i32 %84, 0
  br i1 %85, label %86, label %92

86:                                               ; preds = %80
  %87 = call ptr @__errno_location() #13
  %88 = load i32, ptr %87, align 4, !tbaa !3
  %89 = call ptr @strerror(i32 noundef %88) #12
  %90 = call ptr @__errno_location() #13
  %91 = load i32, ptr %90, align 4, !tbaa !3
  call void (i32, ptr, ...) @pmix_output(i32 noundef 0, ptr noundef @.str.47, ptr noundef %89, i32 noundef %91)
  br label %92

92:                                               ; preds = %86, %80
  store i32 4, ptr %14, align 4, !tbaa !3
  %93 = load ptr, ptr %3, align 8, !tbaa !9
  %94 = getelementptr inbounds nuw %struct.prte_oob_tcp_peer_t, ptr %93, i32 0, i32 3
  %95 = load i32, ptr %94, align 8, !tbaa !68
  %96 = call i32 @getsockopt(i32 noundef %95, i32 noundef 6, i32 noundef 1, ptr noundef %10, ptr noundef %14) #12
  %97 = icmp slt i32 %96, 0
  br i1 %97, label %98, label %104

98:                                               ; preds = %92
  %99 = call ptr @__errno_location() #13
  %100 = load i32, ptr %99, align 4, !tbaa !3
  %101 = call ptr @strerror(i32 noundef %100) #12
  %102 = call ptr @__errno_location() #13
  %103 = load i32, ptr %102, align 4, !tbaa !3
  call void (i32, ptr, ...) @pmix_output(i32 noundef 0, ptr noundef @.str.48, ptr noundef %101, i32 noundef %103)
  br label %104

104:                                              ; preds = %98, %92
  %105 = getelementptr inbounds [255 x i8], ptr %7, i64 0, i64 0
  %106 = call ptr @prte_util_print_name_args(ptr noundef @prte_process_info)
  %107 = load ptr, ptr %3, align 8, !tbaa !9
  %108 = getelementptr inbounds nuw %struct.prte_oob_tcp_peer_t, ptr %107, i32 0, i32 1
  %109 = call ptr @prte_util_print_name_args(ptr noundef %108)
  %110 = load ptr, ptr %4, align 8, !tbaa !99
  %111 = getelementptr inbounds [64 x i8], ptr %5, i64 0, i64 0
  %112 = getelementptr inbounds [64 x i8], ptr %6, i64 0, i64 0
  %113 = load i32, ptr %10, align 4, !tbaa !3
  %114 = load i32, ptr %8, align 4, !tbaa !3
  %115 = load i32, ptr %9, align 4, !tbaa !3
  %116 = load i32, ptr %11, align 4, !tbaa !3
  %117 = call i32 (ptr, i64, ptr, ...) @snprintf(ptr noundef %105, i64 noundef 255, ptr noundef @.str.49, ptr noundef %106, ptr noundef %109, ptr noundef %110, ptr noundef %111, ptr noundef %112, i32 noundef %113, i32 noundef %114, i32 noundef %115, i32 noundef %116) #12
  %118 = getelementptr inbounds [255 x i8], ptr %7, i64 0, i64 0
  call void (i32, ptr, ...) @pmix_output(i32 noundef 0, ptr noundef @.str.42, ptr noundef %118)
  call void @llvm.lifetime.end.p0(i64 4, ptr %14) #12
  call void @llvm.lifetime.end.p0(i64 4, ptr %13) #12
  call void @llvm.lifetime.end.p0(i64 128, ptr %12) #12
  call void @llvm.lifetime.end.p0(i64 4, ptr %11) #12
  call void @llvm.lifetime.end.p0(i64 4, ptr %10) #12
  call void @llvm.lifetime.end.p0(i64 4, ptr %9) #12
  call void @llvm.lifetime.end.p0(i64 4, ptr %8) #12
  call void @llvm.lifetime.end.p0(i64 255, ptr %7) #12
  call void @llvm.lifetime.end.p0(i64 64, ptr %6) #12
  call void @llvm.lifetime.end.p0(i64 64, ptr %5) #12
  ret void
}