; Function Attrs: nounwind uwtable
define void @prte_oob_tcp_peer_dump(ptr noundef %0, ptr noundef %1) local_unnamed_addr #0 {
  %3 = alloca [64 x i8], align 16
  %4 = alloca [64 x i8], align 16
  %5 = alloca [255 x i8], align 16
  %6 = alloca i32, align 4
  %7 = alloca i32, align 4
  %8 = alloca i32, align 4
  %9 = alloca %struct.sockaddr_storage, align 8
  %10 = alloca i32, align 4
  %11 = alloca i32, align 4
  call void @llvm.lifetime.start.p0(i64 64, ptr nonnull %3) #15
  call void @llvm.lifetime.start.p0(i64 64, ptr nonnull %4) #15
  call void @llvm.lifetime.start.p0(i64 255, ptr nonnull %5) #15
  call void @llvm.lifetime.start.p0(i64 4, ptr nonnull %6) #15
  call void @llvm.lifetime.start.p0(i64 4, ptr nonnull %7) #15
  call void @llvm.lifetime.start.p0(i64 4, ptr nonnull %8) #15
  call void @llvm.lifetime.start.p0(i64 128, ptr nonnull %9) #15
  call void @llvm.lifetime.start.p0(i64 4, ptr nonnull %10) #15
  store i32 128, ptr %10, align 4, !tbaa !12
  call void @llvm.lifetime.start.p0(i64 4, ptr nonnull %11) #15
  %12 = getelementptr inbounds nuw i8, ptr %0, i64 416
  %13 = load i32, ptr %12, align 8, !tbaa !64
  %14 = call i32 @getsockname(i32 noundef %13, ptr nonnull %9, ptr noundef nonnull %10) #15
  %15 = icmp slt i32 %14, 0
  br i1 %15, label %16, label %21

16:                                               ; preds = %2
  %17 = tail call ptr @__errno_location() #16
  %18 = load i32, ptr %17, align 4, !tbaa !12
  %19 = call ptr @strerror(i32 noundef %18) #15
  %20 = load i32, ptr %17, align 4, !tbaa !12
  call void (i32, ptr, ...) @pmix_output(i32 noundef 0, ptr noundef nonnull @.str.41, ptr noundef %19, i32 noundef %20) #15
  store i64 31093567915781749, ptr %3, align 16
  br label %24

21:                                               ; preds = %2
  %22 = call ptr @pmix_net_get_hostname(ptr noundef nonnull %9) #15
  %23 = call i32 (ptr, i64, ptr, ...) @snprintf(ptr noundef nonnull dereferenceable(1) %3, i64 noundef 64, ptr noundef nonnull @.str.42, ptr noundef %22) #15
  br label %24

24:                                               ; preds = %21, %16
  %25 = load i32, ptr %12, align 8, !tbaa !64
  %26 = call i32 @getpeername(i32 noundef %25, ptr nonnull %9, ptr noundef nonnull %10) #15
  %27 = icmp slt i32 %26, 0
  br i1 %27, label %28, label %33

28:                                               ; preds = %24
  %29 = tail call ptr @__errno_location() #16
  %30 = load i32, ptr %29, align 4, !tbaa !12
  %31 = call ptr @strerror(i32 noundef %30) #15
  %32 = load i32, ptr %29, align 4, !tbaa !12
  call void (i32, ptr, ...) @pmix_output(i32 noundef 0, ptr noundef nonnull @.str.44, ptr noundef %31, i32 noundef %32) #15
  store i64 31093567915781749, ptr %4, align 16
  br label %36

33:                                               ; preds = %24
  %34 = call ptr @pmix_net_get_hostname(ptr noundef nonnull %9) #15
  %35 = call i32 (ptr, i64, ptr, ...) @snprintf(ptr noundef nonnull dereferenceable(1) %4, i64 noundef 64, ptr noundef nonnull @.str.42, ptr noundef %34) #15
  br label %36

36:                                               ; preds = %33, %28
  %37 = load i32, ptr %12, align 8, !tbaa !64
  %38 = call i32 (i32, i32, ...) @fcntl(i32 noundef %37, i32 noundef 3, i32 noundef 0) #15
  %39 = icmp slt i32 %38, 0
  br i1 %39, label %40, label %45

40:                                               ; preds = %36
  %41 = tail call ptr @__errno_location() #16
  %42 = load i32, ptr %41, align 4, !tbaa !12
  %43 = call ptr @strerror(i32 noundef %42) #15
  %44 = load i32, ptr %41, align 4, !tbaa !12
  call void (i32, ptr, ...) @pmix_output(i32 noundef 0, ptr noundef nonnull @.str.45, ptr noundef %43, i32 noundef %44) #15
  br label %45

45:                                               ; preds = %40, %36
  store i32 4, ptr %11, align 4, !tbaa !12
  %46 = load i32, ptr %12, align 8, !tbaa !64
  %47 = call i32 @getsockopt(i32 noundef %46, i32 noundef 1, i32 noundef 7, ptr noundef nonnull %6, ptr noundef nonnull %11) #15
  %48 = icmp slt i32 %47, 0
  br i1 %48, label %49, label %54

49:                                               ; preds = %45
  %50 = tail call ptr @__errno_location() #16
  %51 = load i32, ptr %50, align 4, !tbaa !12
  %52 = call ptr @strerror(i32 noundef %51) #15
  %53 = load i32, ptr %50, align 4, !tbaa !12
  call void (i32, ptr, ...) @pmix_output(i32 noundef 0, ptr noundef nonnull @.str.46, ptr noundef %52, i32 noundef %53) #15
  br label %54

54:                                               ; preds = %49, %45
  store i32 4, ptr %11, align 4, !tbaa !12
  %55 = load i32, ptr %12, align 8, !tbaa !64
  %56 = call i32 @getsockopt(i32 noundef %55, i32 noundef 1, i32 noundef 8, ptr noundef nonnull %7, ptr noundef nonnull %11) #15
  %57 = icmp slt i32 %56, 0
  br i1 %57, label %58, label %63

58:                                               ; preds = %54
  %59 = tail call ptr @__errno_location() #16
  %60 = load i32, ptr %59, align 4, !tbaa !12
  %61 = call ptr @strerror(i32 noundef %60) #15
  %62 = load i32, ptr %59, align 4, !tbaa !12
  call void (i32, ptr, ...) @pmix_output(i32 noundef 0, ptr noundef nonnull @.str.47, ptr noundef %61, i32 noundef %62) #15
  br label %63

63:                                               ; preds = %58, %54
  store i32 4, ptr %11, align 4, !tbaa !12
  %64 = load i32, ptr %12, align 8, !tbaa !64
  %65 = call i32 @getsockopt(i32 noundef %64, i32 noundef 6, i32 noundef 1, ptr noundef nonnull %8, ptr noundef nonnull %11) #15
  %66 = icmp slt i32 %65, 0
  br i1 %66, label %67, label %72

67:                                               ; preds = %63
  %68 = tail call ptr @__errno_location() #16
  %69 = load i32, ptr %68, align 4, !tbaa !12
  %70 = call ptr @strerror(i32 noundef %69) #15
  %71 = load i32, ptr %68, align 4, !tbaa !12
  call void (i32, ptr, ...) @pmix_output(i32 noundef 0, ptr noundef nonnull @.str.48, ptr noundef %70, i32 noundef %71) #15
  br label %72

72:                                               ; preds = %67, %63
  %73 = call ptr @prte_util_print_name_args(ptr noundef nonnull @prte_process_info) #15
  %74 = getelementptr inbounds nuw i8, ptr %0, i64 144
  %75 = call ptr @prte_util_print_name_args(ptr noundef nonnull %74) #15
  %76 = load i32, ptr %8, align 4, !tbaa !12
  %77 = load i32, ptr %6, align 4, !tbaa !12
  %78 = load i32, ptr %7, align 4, !tbaa !12
  %79 = call i32 (ptr, i64, ptr, ...) @snprintf(ptr noundef nonnull dereferenceable(1) %5, i64 noundef 255, ptr noundef nonnull @.str.49, ptr noundef %73, ptr noundef %75, ptr noundef %1, ptr noundef nonnull %3, ptr noundef nonnull %4, i32 noundef %76, i32 noundef %77, i32 noundef %78, i32 noundef %38) #15
  call void (i32, ptr, ...) @pmix_output(i32 noundef 0, ptr noundef nonnull @.str.42, ptr noundef nonnull %5) #15
  call void @llvm.lifetime.end.p0(i64 4, ptr nonnull %11) #15
  call void @llvm.lifetime.end.p0(i64 4, ptr nonnull %10) #15
  call void @llvm.lifetime.end.p0(i64 128, ptr nonnull %9) #15
  call void @llvm.lifetime.end.p0(i64 4, ptr nonnull %8) #15
  call void @llvm.lifetime.end.p0(i64 4, ptr nonnull %7) #15
  call void @llvm.lifetime.end.p0(i64 4, ptr nonnull %6) #15
  call void @llvm.lifetime.end.p0(i64 255, ptr nonnull %5) #15
  call void @llvm.lifetime.end.p0(i64 64, ptr nonnull %4) #15
  call void @llvm.lifetime.end.p0(i64 64, ptr nonnull %3) #15
  ret void
}